target datalayout = "e-m:e-p270:32:32-p271:32:32-p272:64:64-i64:64-i128:128-f80:128-n8:16:32:64-S128"
target triple = "x86_64-pc-linux-gnu"

%"class.zmq::tcp_address_t" = type <{ %"union.zmq::ip_addr_t", %"union.zmq::ip_addr_t", i8, [3 x i8] }>
%"union.zmq::ip_addr_t" = type { %struct.sockaddr_in6 }
%struct.sockaddr_in6 = type { i16, i16, i32, %struct.in6_addr, i32 }
%struct.in6_addr = type { %union.anon }
%union.anon = type { [4 x i32] }
%struct.sockaddr = type { i16, [14 x i8] }

@stderr = external global ptr, align 8
@.str = private unnamed_addr constant [30 x i8] c"Assertion failed: %s (%s:%d)\0A\00", align 1
@.str.1 = private unnamed_addr constant [19 x i8] c"sa_ && sa_len_ > 0\00", align 1
@.str.2 = private unnamed_addr constant [111 x i8] c"generated/home/dtcxzyw/WorkSpace/Projects/compilers/llvm-opt-benchmark/bench/libzmq/libzmq/src/tcp_address.cpp\00", align 1

; Function Attrs: mustprogress uwtable
define void @_ZN3zmq13tcp_address_tC2EPK8sockaddrj(ptr noundef nonnull align 4 dereferenceable(57) %0, ptr noundef %1, i32 noundef %2) unnamed_addr #2 align 2 {
  %4 = alloca ptr, align 8
  %5 = alloca ptr, align 8
  %6 = alloca i32, align 4
  store ptr %0, ptr %4, align 8, !tbaa !3
  store ptr %1, ptr %5, align 8, !tbaa !11
  store i32 %2, ptr %6, align 4, !tbaa !13
  %7 = load ptr, ptr %4, align 8
  %8 = getelementptr inbounds nuw %"class.zmq::tcp_address_t", ptr %7, i32 0, i32 2
  store i8 0, ptr %8, align 4, !tbaa !8
  br label %9

9:                                                ; preds = %3
  %10 = load ptr, ptr %5, align 8, !tbaa !11
  %11 = icmp ne ptr %10, null
  br i1 %11, label %12, label %15

12:                                               ; preds = %9
  %13 = load i32, ptr %6, align 4, !tbaa !13
  %14 = icmp ugt i32 %13, 0
  br label %15

15:                                               ; preds = %12, %9
  %16 = phi i1 [ false, %9 ], [ %14, %12 ]
  %17 = xor i1 %16, true
  %18 = zext i1 %17 to i64
  %19 = call i64 @llvm.expect.i64(i64 %18, i64 0)
  %20 = icmp ne i64 %19, 0
  br i1 %20, label %21, label %26

21:                                               ; preds = %15
  %22 = load ptr, ptr @stderr, align 8, !tbaa !15
  %23 = call i32 (ptr, ptr, ...) @fprintf(ptr noundef %22, ptr noundef @.str, ptr noundef @.str.1, ptr noundef @.str.2, i32 noundef 34) #16
  %24 = load ptr, ptr @stderr, align 8, !tbaa !15
  %25 = call i32 @fflush(ptr noundef %24)
  call void @_ZN3zmq9zmq_abortEPKc(ptr noundef @.str.1)
  br label %26

26:                                               ; preds = %21, %15
  br label %27

27:                                               ; preds = %26
  %28 = getelementptr inbounds nuw %"class.zmq::tcp_address_t", ptr %7, i32 0, i32 0
  call void @llvm.memset.p0.i64(ptr align 4 %28, i8 0, i64 28, i1 false)
  %29 = getelementptr inbounds nuw %"class.zmq::tcp_address_t", ptr %7, i32 0, i32 1
  call void @llvm.memset.p0.i64(ptr align 4 %29, i8 0, i64 28, i1 false)
  %30 = load ptr, ptr %5, align 8, !tbaa !11
  %31 = getelementptr inbounds nuw %struct.sockaddr, ptr %30, i32 0, i32 0
  %32 = load i16, ptr %31, align 2, !tbaa !17
  %33 = zext i16 %32 to i32
  %34 = icmp eq i32 %33, 2
  br i1 %34, label %35, label %41

35:                                               ; preds = %27
  %36 = load i32, ptr %6, align 4, !tbaa !13
  %37 = icmp uge i32 %36, 16
  br i1 %37, label %38, label %41

38:                                               ; preds = %35
  %39 = getelementptr inbounds nuw %"class.zmq::tcp_address_t", ptr %7, i32 0, i32 0
  %40 = load ptr, ptr %5, align 8, !tbaa !11
  call void @llvm.memcpy.p0.p0.i64(ptr align 4 %39, ptr align 2 %40, i64 16, i1 false)
  br label %54

41:                                               ; preds = %35, %27
  %42 = load ptr, ptr %5, align 8, !tbaa !11
  %43 = getelementptr inbounds nuw %struct.sockaddr, ptr %42, i32 0, i32 0
  %44 = load i16, ptr %43, align 2, !tbaa !17
  %45 = zext i16 %44 to i32
  %46 = icmp eq i32 %45, 10
  br i1 %46, label %47, label %53

47:                                               ; preds = %41
  %48 = load i32, ptr %6, align 4, !tbaa !13
  %49 = icmp uge i32 %48, 28
  br i1 %49, label %50, label %53

50:                                               ; preds = %47
  %51 = getelementptr inbounds nuw %"class.zmq::tcp_address_t", ptr %7, i32 0, i32 0
  %52 = load ptr, ptr %5, align 8, !tbaa !11
  call void @llvm.memcpy.p0.p0.i64(ptr align 4 %51, ptr align 2 %52, i64 28, i1 false)
  br label %53

53:                                               ; preds = %50, %47, %41
  br label %54

54:                                               ; preds = %53, %38
  ret void
}