; Function Attrs: mustprogress uwtable
define void @_ZN3zmq13tcp_address_tC2EPK8sockaddrj(ptr noundef nonnull writeonly align 4 captures(none) dereferenceable(57) initializes((0, 57)) %0, ptr noundef readonly %1, i32 noundef %2) unnamed_addr #2 align 2 {
  %4 = getelementptr inbounds nuw i8, ptr %0, i64 56
  store i8 0, ptr %4, align 4, !tbaa !3
  %5 = icmp eq ptr %1, null
  %6 = icmp eq i32 %2, 0
  %.not12 = or i1 %5, %6
  br i1 %.not12, label %7, label %12, !prof !8

7:                                                ; preds = %3
  %8 = load ptr, ptr @stderr, align 8, !tbaa !9
  %9 = tail call i32 (ptr, ptr, ...) @fprintf(ptr noundef %8, ptr noundef nonnull @.str, ptr noundef nonnull @.str.1, ptr noundef nonnull @.str.2, i32 noundef 34) #17
  %10 = load ptr, ptr @stderr, align 8, !tbaa !9
  %11 = tail call i32 @fflush(ptr noundef %10)
  tail call void @_ZN3zmq9zmq_abortEPKc(ptr noundef nonnull @.str.1)
  br label %12

12:                                               ; preds = %3, %7
  tail call void @llvm.memset.p0.i64(ptr noundef nonnull align 4 dereferenceable(56) %0, i8 0, i64 56, i1 false)
  %13 = load i16, ptr %1, align 2, !tbaa !12
  %14 = icmp eq i16 %13, 2
  %15 = icmp ugt i32 %2, 15
  %or.cond = and i1 %15, %14
  br i1 %or.cond, label %16, label %17

16:                                               ; preds = %12
  tail call void @llvm.memcpy.p0.p0.i64(ptr noundef nonnull align 4 dereferenceable(16) %0, ptr noundef nonnull align 2 dereferenceable(16) %1, i64 16, i1 false)
  br label %21

17:                                               ; preds = %12
  %18 = icmp eq i16 %13, 10
  %19 = icmp ugt i32 %2, 27
  %or.cond3 = and i1 %19, %18
  br i1 %or.cond3, label %20, label %21

20:                                               ; preds = %17
  tail call void @llvm.memcpy.p0.p0.i64(ptr noundef nonnull align 4 dereferenceable(28) %0, ptr noundef nonnull align 2 dereferenceable(28) %1, i64 28, i1 false)
  br label %21

21:                                               ; preds = %17, %20, %16
  ret void
}